; Function Attrs: mustprogress uwtable
define noundef nonnull align 8 dereferenceable(16) ptr @_ZN10open_spielrsERSiRNS_8GameType11InformationE(ptr noundef nonnull returned align 8 dereferenceable(16) %0, ptr noundef nonnull writeonly align 4 captures(none) dereferenceable(4) %1) local_unnamed_addr #3 personality ptr @__gxx_personality_v0 {
  %3 = alloca %"class.std::__cxx11::basic_string", align 8
  %4 = alloca %"class.std::__cxx11::basic_string", align 8
  %5 = alloca %"class.absl::debian2::AlphaNum", align 8
  %6 = alloca %"class.absl::debian2::AlphaNum", align 8
  %7 = alloca %"class.absl::debian2::AlphaNum", align 8
  call void @_ZNSt7__cxx1112basic_stringIcSt11char_traitsIcESaIcEEC1Ev(ptr noundef nonnull align 8 dereferenceable(32) %3) #28
  %8 = invoke noundef nonnull align 8 dereferenceable(16) ptr @_ZStrsIcSt11char_traitsIcESaIcEERSt13basic_istreamIT_T0_ES7_RNSt7__cxx1112basic_stringIS4_S5_T1_EE(ptr noundef nonnull align 8 dereferenceable(16) %0, ptr noundef nonnull align 8 dereferenceable(32) %3)
          to label %9 unwind label %12

9:                                                ; preds = %2
  %10 = call noundef i32 @_ZNKSt7__cxx1112basic_stringIcSt11char_traitsIcESaIcEE7compareEPKc(ptr noundef nonnull align 8 dereferenceable(32) %3, ptr noundef nonnull @.str.86) #28
  %11 = icmp eq i32 %10, 0
  br i1 %11, label %27, label %14

12:                                               ; preds = %20, %2
  %13 = landingpad { ptr, i32 }
          cleanup
  br label %28

14:                                               ; preds = %9
  %15 = call noundef i32 @_ZNKSt7__cxx1112basic_stringIcSt11char_traitsIcESaIcEE7compareEPKc(ptr noundef nonnull align 8 dereferenceable(32) %3, ptr noundef nonnull @.str.87) #28
  %16 = icmp eq i32 %15, 0
  br i1 %16, label %27, label %17

17:                                               ; preds = %14
  %18 = call noundef i32 @_ZNKSt7__cxx1112basic_stringIcSt11char_traitsIcESaIcEE7compareEPKc(ptr noundef nonnull align 8 dereferenceable(32) %3, ptr noundef nonnull @.str.88) #28
  %19 = icmp eq i32 %18, 0
  br i1 %19, label %27, label %20

20:                                               ; preds = %17
  store ptr @.str.90, ptr %5, align 8
  %21 = getelementptr inbounds nuw i8, ptr %5, i64 8
  store i64 20, ptr %21, align 8
  call void @_ZN4absl7debian28AlphaNumC2ISaIcEEERKNSt7__cxx1112basic_stringIcSt11char_traitsIcET_EE(ptr noundef nonnull align 8 dereferenceable(48) %6, ptr noundef nonnull align 8 dereferenceable(32) %3)
  store ptr @.str.80, ptr %7, align 8
  %22 = getelementptr inbounds nuw i8, ptr %7, i64 8
  store i64 1, ptr %22, align 8
  invoke void @_ZN4absl7debian26StrCatB5cxx11ERKNS0_8AlphaNumES3_S3_(ptr dead_on_unwind nonnull writable sret(%"class.std::__cxx11::basic_string") align 8 %4, ptr noundef nonnull align 8 dereferenceable(48) %5, ptr noundef nonnull align 8 dereferenceable(48) %6, ptr noundef nonnull align 8 dereferenceable(48) %7)
          to label %23 unwind label %12

23:                                               ; preds = %20
  invoke void @_ZN10open_spiel15SpielFatalErrorERKNSt7__cxx1112basic_stringIcSt11char_traitsIcESaIcEEE(ptr noundef nonnull align 8 dereferenceable(32) %4) #29
          to label %24 unwind label %25

24:                                               ; preds = %23
  unreachable

25:                                               ; preds = %23
  %26 = landingpad { ptr, i32 }
          cleanup
  call void @_ZNSt7__cxx1112basic_stringIcSt11char_traitsIcESaIcEED1Ev(ptr noundef nonnull align 8 dereferenceable(32) %4) #28
  br label %28

27:                                               ; preds = %17, %14, %9
  %.sink = phi i32 [ 0, %9 ], [ 1, %14 ], [ 2, %17 ]
  store i32 %.sink, ptr %1, align 4
  call void @_ZNSt7__cxx1112basic_stringIcSt11char_traitsIcESaIcEED1Ev(ptr noundef nonnull align 8 dereferenceable(32) %3) #28
  ret ptr %0

28:                                               ; preds = %25, %12
  %.pn = phi { ptr, i32 } [ %26, %25 ], [ %13, %12 ]
  call void @_ZNSt7__cxx1112basic_stringIcSt11char_traitsIcESaIcEED1Ev(ptr noundef nonnull align 8 dereferenceable(32) %3) #28
  resume { ptr, i32 } %.pn
}